target datalayout = "e-m:e-p270:32:32-p271:32:32-p272:64:64-i64:64-i128:128-f80:128-n8:16:32:64-S128"
target triple = "x86_64-pc-linux-gnu"

%"struct.std::array.0" = type { [257 x i16] }
%"class.ue2::flat_set" = type { %"class.ue2::flat_detail::flat_base" }
%"class.ue2::flat_detail::flat_base" = type { %"class.std::tuple" }
%"class.std::tuple" = type { %"struct.std::_Tuple_impl" }
%"struct.std::_Tuple_impl" = type { %"struct.std::_Head_base.4" }
%"struct.std::_Head_base.4" = type { %"class.boost::container::small_vector" }
%"class.boost::container::small_vector" = type { %"class.boost::container::small_vector_base.base", [4 x i8] }
%"class.boost::container::small_vector_base.base" = type <{ %"class.boost::container::vector", %"union.boost::move_detail::aligned_struct_wrapper" }>
%"class.boost::container::vector" = type { %"struct.boost::container::vector_alloc_holder" }
%"struct.boost::container::vector_alloc_holder" = type { ptr, i64, i64 }
%"union.boost::move_detail::aligned_struct_wrapper" = type { %"struct.boost::move_detail::aligned_struct" }
%"struct.boost::move_detail::aligned_struct" = type { [4 x i8] }
%"struct.ue2::raw_dfa" = type { ptr, i32, %"class.std::vector.9", i16, i16, i16, %"struct.std::array.0" }
%"class.std::vector.9" = type { %"struct.std::_Vector_base.10" }
%"struct.std::_Vector_base.10" = type { %"struct.std::_Vector_base<ue2::dstate, std::allocator<ue2::dstate>>::_Vector_impl" }
%"struct.std::_Vector_base<ue2::dstate, std::allocator<ue2::dstate>>::_Vector_impl" = type { %"struct.std::_Vector_base<ue2::dstate, std::allocator<ue2::dstate>>::_Vector_impl_data" }
%"struct.std::_Vector_base<ue2::dstate, std::allocator<ue2::dstate>>::_Vector_impl_data" = type { ptr, ptr, ptr }
%"struct.ue2::dstate" = type { %"class.std::vector.68", i16, i16, [4 x i8], %"class.ue2::flat_set", %"class.ue2::flat_set" }
%"class.std::vector.68" = type { %"struct.std::_Vector_base.69" }
%"struct.std::_Vector_base.69" = type { %"struct.std::_Vector_base<unsigned short, std::allocator<unsigned short>>::_Vector_impl" }
%"struct.std::_Vector_base<unsigned short, std::allocator<unsigned short>>::_Vector_impl" = type { %"struct.std::_Vector_base<unsigned short, std::allocator<unsigned short>>::_Vector_impl_data" }
%"struct.std::_Vector_base<unsigned short, std::allocator<unsigned short>>::_Vector_impl_data" = type { ptr, ptr, ptr }

; Function Attrs: mustprogress nounwind uwtable
define linkonce_odr dso_local noundef nonnull align 2 dereferenceable(2) ptr @_ZNSt14__array_traitsItLm257EE6_S_refERA257_Ktm(ptr noundef nonnull align 2 dereferenceable(514) %0, i64 noundef %1) #1 comdat align 2 {
  %3 = alloca ptr, align 8
  %4 = alloca i64, align 8
  store ptr %0, ptr %3, align 8
  store i64 %1, ptr %4, align 8
  %5 = load ptr, ptr %3, align 8
  %6 = load i64, ptr %4, align 8
  %7 = getelementptr inbounds nuw [257 x i16], ptr %5, i64 0, i64 %6
  ret ptr %7
}

; Function Attrs: mustprogress nounwind uwtable
define linkonce_odr dso_local noundef nonnull align 2 dereferenceable(2) ptr @_ZNKSt6vectorItSaItEEixEm(ptr noundef nonnull align 8 dereferenceable(24) %0, i64 noundef %1) #1 comdat align 2 {
  %3 = alloca ptr, align 8
  %4 = alloca i64, align 8
  store ptr %0, ptr %3, align 8
  store i64 %1, ptr %4, align 8
  %5 = load ptr, ptr %3, align 8
  %6 = getelementptr inbounds nuw %"struct.std::_Vector_base.69", ptr %5, i32 0, i32 0
  %7 = getelementptr inbounds nuw %"struct.std::_Vector_base<unsigned short, std::allocator<unsigned short>>::_Vector_impl_data", ptr %6, i32 0, i32 0
  %8 = load ptr, ptr %7, align 8
  %9 = load i64, ptr %4, align 8
  %10 = getelementptr inbounds nuw i16, ptr %8, i64 %9
  ret ptr %10
}

; Function Attrs: mustprogress nounwind uwtable
define linkonce_odr dso_local noundef nonnull align 2 dereferenceable(2) ptr @_ZNKSt5arrayItLm257EEixEm(ptr noundef nonnull align 2 dereferenceable(514) %0, i64 noundef %1) #1 comdat align 2 {
  %3 = alloca ptr, align 8
  %4 = alloca i64, align 8
  store ptr %0, ptr %3, align 8
  store i64 %1, ptr %4, align 8
  %5 = load ptr, ptr %3, align 8
  %6 = getelementptr inbounds nuw %"struct.std::array.0", ptr %5, i32 0, i32 0
  %7 = load i64, ptr %4, align 8
  %8 = call noundef nonnull align 2 dereferenceable(2) ptr @_ZNSt14__array_traitsItLm257EE6_S_refERA257_Ktm(ptr noundef nonnull align 2 dereferenceable(514) %6, i64 noundef %7) #23
  ret ptr %8
}

; Function Attrs: mustprogress nounwind uwtable
define linkonce_odr hidden noundef nonnull align 8 dereferenceable(96) ptr @_ZNKSt6vectorIN3ue26dstateESaIS1_EEixEm(ptr noundef nonnull align 8 dereferenceable(24) %0, i64 noundef %1) #1 comdat align 2 {
  %3 = alloca ptr, align 8
  %4 = alloca i64, align 8
  store ptr %0, ptr %3, align 8
  store i64 %1, ptr %4, align 8
  %5 = load ptr, ptr %3, align 8
  %6 = getelementptr inbounds nuw %"struct.std::_Vector_base.10", ptr %5, i32 0, i32 0
  %7 = getelementptr inbounds nuw %"struct.std::_Vector_base<ue2::dstate, std::allocator<ue2::dstate>>::_Vector_impl_data", ptr %6, i32 0, i32 0
  %8 = load ptr, ptr %7, align 8
  %9 = load i64, ptr %4, align 8
  %10 = getelementptr inbounds nuw %"struct.ue2::dstate", ptr %8, i64 %9
  ret ptr %10
}

; Function Attrs: mustprogress nounwind uwtable
define internal noundef zeroext i16 @_ZN3ue2L9successorERKSt6vectorINS_6dstateESaIS1_EEtRKSt5arrayItLm257EEt(ptr noundef nonnull align 8 dereferenceable(24) %0, i16 noundef zeroext %1, ptr noundef nonnull align 2 dereferenceable(514) %2, i16 noundef zeroext %3) #1 {
  %5 = alloca ptr, align 8
  %6 = alloca i16, align 2
  %7 = alloca ptr, align 8
  %8 = alloca i16, align 2
  store ptr %0, ptr %5, align 8
  store i16 %1, ptr %6, align 2
  store ptr %2, ptr %7, align 8
  store i16 %3, ptr %8, align 2
  %9 = load ptr, ptr %5, align 8
  %10 = load i16, ptr %6, align 2
  %11 = zext i16 %10 to i64
  %12 = call noundef nonnull align 8 dereferenceable(96) ptr @_ZNKSt6vectorIN3ue26dstateESaIS1_EEixEm(ptr noundef nonnull align 8 dereferenceable(24) %9, i64 noundef %11) #23
  %13 = getelementptr inbounds nuw %"struct.ue2::dstate", ptr %12, i32 0, i32 0
  %14 = load ptr, ptr %7, align 8
  %15 = load i16, ptr %8, align 2
  %16 = zext i16 %15 to i64
  %17 = call noundef nonnull align 2 dereferenceable(2) ptr @_ZNKSt5arrayItLm257EEixEm(ptr noundef nonnull align 2 dereferenceable(514) %14, i64 noundef %16) #23
  %18 = load i16, ptr %17, align 2
  %19 = zext i16 %18 to i64
  %20 = call noundef nonnull align 2 dereferenceable(2) ptr @_ZNKSt6vectorItSaItEEixEm(ptr noundef nonnull align 8 dereferenceable(24) %13, i64 noundef %19) #23
  %21 = load i16, ptr %20, align 2
  ret i16 %21
}

; Function Attrs: mustprogress uwtable
define hidden void @_ZN3ue226getFullTransitionFromStateERKNS_7raw_dfaEtPt(ptr noundef nonnull align 8 dereferenceable(560) %0, i16 noundef zeroext %1, ptr noundef %2) #3 {
  %4 = alloca ptr, align 8
  %5 = alloca i16, align 2
  %6 = alloca ptr, align 8
  %7 = alloca i32, align 4
  store ptr %0, ptr %4, align 8
  store i16 %1, ptr %5, align 2
  store ptr %2, ptr %6, align 8
  call void @llvm.lifetime.start.p0(i64 4, ptr %7) #23
  store i32 0, ptr %7, align 4
  br label %8

8:                                                ; preds = %25, %3
  %9 = load i32, ptr %7, align 4
  %10 = icmp ult i32 %9, 257
  br i1 %10, label %12, label %11

11:                                               ; preds = %8
  call void @llvm.lifetime.end.p0(i64 4, ptr %7) #23
  br label %28

12:                                               ; preds = %8
  %13 = load ptr, ptr %4, align 8
  %14 = getelementptr inbounds nuw %"struct.ue2::raw_dfa", ptr %13, i32 0, i32 2
  %15 = load i16, ptr %5, align 2
  %16 = load ptr, ptr %4, align 8
  %17 = getelementptr inbounds nuw %"struct.ue2::raw_dfa", ptr %16, i32 0, i32 6
  %18 = load i32, ptr %7, align 4
  %19 = trunc i32 %18 to i16
  %20 = call noundef zeroext i16 @_ZN3ue2L9successorERKSt6vectorINS_6dstateESaIS1_EEtRKSt5arrayItLm257EEt(ptr noundef nonnull align 8 dereferenceable(24) %14, i16 noundef zeroext %15, ptr noundef nonnull align 2 dereferenceable(514) %17, i16 noundef zeroext %19)
  %21 = load ptr, ptr %6, align 8
  %22 = load i32, ptr %7, align 4
  %23 = zext i32 %22 to i64
  %24 = getelementptr inbounds nuw i16, ptr %21, i64 %23
  store i16 %20, ptr %24, align 2
  br label %25

25:                                               ; preds = %12
  %26 = load i32, ptr %7, align 4
  %27 = add i32 %26, 1
  store i32 %27, ptr %7, align 4
  br label %8, !llvm.loop !10

28:                                               ; preds = %11
  ret void
}