; Function Attrs: mustprogress nofree norecurse nosync nounwind memory(read, argmem: readwrite, inaccessiblemem: none) uwtable
define hidden void @_ZN3ue226getFullTransitionFromStateERKNS_7raw_dfaEtPt(ptr noundef nonnull readonly align 8 captures(none) dereferenceable(560) %0, i16 noundef zeroext %1, ptr noundef writeonly captures(none) %2) local_unnamed_addr #0 {
  %4 = getelementptr inbounds nuw i8, ptr %0, i64 16
  %5 = getelementptr inbounds nuw i8, ptr %0, i64 46
  %6 = zext i16 %1 to i64
  br label %8

7:                                                ; preds = %8
  ret void

8:                                                ; preds = %3, %8
  %indvars.iv = phi i64 [ 0, %3 ], [ %indvars.iv.next, %8 ]
  %.val = load ptr, ptr %4, align 8
  %9 = getelementptr inbounds nuw %"struct.ue2::dstate", ptr %.val, i64 %6
  %10 = getelementptr inbounds nuw [257 x i16], ptr %5, i64 0, i64 %indvars.iv
  %11 = load i16, ptr %10, align 2
  %12 = zext i16 %11 to i64
  %13 = load ptr, ptr %9, align 8
  %14 = getelementptr inbounds nuw i16, ptr %13, i64 %12
  %15 = load i16, ptr %14, align 2
  %16 = getelementptr inbounds nuw i16, ptr %2, i64 %indvars.iv
  store i16 %15, ptr %16, align 2
  %indvars.iv.next = add nuw nsw i64 %indvars.iv, 1
  %exitcond.not = icmp eq i64 %indvars.iv.next, 257
  br i1 %exitcond.not, label %7, label %8, !llvm.loop !22
}